target datalayout = "e-m:e-p270:32:32-p271:32:32-p272:64:64-i64:64-i128:128-f80:128-n8:16:32:64-S128"
target triple = "x86_64-pc-linux-gnu"

%struct.t_swap = type { i32, ptr, ptr, i32, %"class.std::vector.105", i32, float }
%"class.std::vector.105" = type { %"struct.std::_Vector_base.106" }
%"struct.std::_Vector_base.106" = type { %"struct.std::_Vector_base<swap_group, std::allocator<swap_group>>::_Vector_impl" }
%"struct.std::_Vector_base<swap_group, std::allocator<swap_group>>::_Vector_impl" = type { %"struct.std::_Vector_base<swap_group, std::allocator<swap_group>>::_Vector_impl_data" }
%"struct.std::_Vector_base<swap_group, std::allocator<swap_group>>::_Vector_impl_data" = type { ptr, ptr, ptr }

; Function Attrs: mustprogress uwtable
define void @_Z17finish_swapcoordsP6t_swap(ptr noundef %0) #3 {
  %2 = alloca ptr, align 8
  store ptr %0, ptr %2, align 8, !tbaa !275
  %3 = load ptr, ptr %2, align 8, !tbaa !275
  %4 = icmp eq ptr %3, null
  br i1 %4, label %5, label %6

5:                                                ; preds = %1
  br label %16

6:                                                ; preds = %1
  %7 = load ptr, ptr %2, align 8, !tbaa !275
  %8 = getelementptr inbounds nuw %struct.t_swap, ptr %7, i32 0, i32 2
  %9 = load ptr, ptr %8, align 8, !tbaa !375
  %10 = icmp ne ptr %9, null
  br i1 %10, label %11, label %16

11:                                               ; preds = %6
  %12 = load ptr, ptr %2, align 8, !tbaa !275
  %13 = getelementptr inbounds nuw %struct.t_swap, ptr %12, i32 0, i32 2
  %14 = load ptr, ptr %13, align 8, !tbaa !375
  %15 = call noundef i32 @_Z14gmx_fio_fcloseP8_IO_FILE(ptr noundef %14)
  br label %16

16:                                               ; preds = %5, %11, %6
  ret void
}