; Function Attrs: mustprogress uwtable
define void @_Z17finish_swapcoordsP6t_swap(ptr noundef readonly %0) local_unnamed_addr #9 {
  %2 = icmp eq ptr %0, null
  br i1 %2, label %8, label %3

3:                                                ; preds = %1
  %4 = getelementptr inbounds nuw i8, ptr %0, i64 16
  %5 = load ptr, ptr %4, align 8, !tbaa !310
  %.not = icmp eq ptr %5, null
  br i1 %.not, label %8, label %6

6:                                                ; preds = %3
  %7 = tail call noundef i32 @_Z14gmx_fio_fcloseP8_IO_FILE(ptr noundef nonnull %5)
  br label %8

8:                                                ; preds = %1, %6, %3
  ret void
}